; Function Attrs: mustprogress uwtable
define noundef signext range(i8 0, 2) i8 @_ZN6icu_7718DateIntervalFormat21fieldExistsInSkeletonE19UCalendarDateFieldsRKNS_13UnicodeStringE(i32 noundef %0, ptr noundef nonnull align 8 dereferenceable(64) %1) local_unnamed_addr #1 align 2 {
  %3 = zext i32 %0 to i64
  %4 = getelementptr inbounds nuw [0 x i16], ptr @_ZN6icu_7718DateIntervalFormat30fgCalendarFieldToPatternLetterE, i64 0, i64 %3
  %5 = load i16, ptr %4, align 2, !tbaa !81
  %6 = getelementptr inbounds nuw i8, ptr %1, i64 8
  %7 = load i16, ptr %6, align 8, !tbaa !25
  %8 = icmp slt i16 %7, 0
  %9 = ashr i16 %7, 5
  %10 = sext i16 %9 to i32
  %11 = getelementptr inbounds nuw i8, ptr %1, i64 12
  %12 = load i32, ptr %11, align 4
  %13 = select i1 %8, i32 %12, i32 %10
  %14 = tail call noundef i32 @_ZNK6icu_7713UnicodeString9doIndexOfEDsii(ptr noundef nonnull align 8 dereferenceable(64) %1, i16 noundef zeroext %5, i32 noundef 0, i32 noundef %13)
  %15 = icmp ne i32 %14, -1
  %16 = zext i1 %15 to i8
  ret i8 %16
}